target datalayout = "e-m:e-p270:32:32-p271:32:32-p272:64:64-i64:64-i128:128-f80:128-n8:16:32:64-S128"
target triple = "x86_64-pc-linux-gnu"

%class.anon = type <{ ptr, ptr, i8, [7 x i8] }>
%"struct.Luau::SingletonType" = type { %"class.Luau::Variant.161" }
%"class.Luau::Variant.161" = type { i32, [4 x i8], [32 x i8] }

; Function Attrs: mustprogress nounwind uwtable
define linkonce_odr dso_local void @_ZN4Luau7VariantIJNS_16BooleanSingletonENS_15StringSingletonEEED2Ev(ptr noundef nonnull align 8 dereferenceable(40) %0) unnamed_addr #2 comdat align 2 personality ptr @__gxx_personality_v0 {
  %2 = alloca ptr, align 8
  store ptr %0, ptr %2, align 8, !tbaa !473
  %3 = load ptr, ptr %2, align 8
  %4 = getelementptr inbounds nuw %"class.Luau::Variant.161", ptr %3, i32 0, i32 0
  %5 = load i32, ptr %4, align 8, !tbaa !475
  %6 = sext i32 %5 to i64
  %7 = getelementptr inbounds [2 x ptr], ptr @_ZN4Luau7VariantIJNS_16BooleanSingletonENS_15StringSingletonEEE9tableDtorE, i64 0, i64 %6
  %8 = load ptr, ptr %7, align 8, !tbaa !438
  %9 = getelementptr inbounds nuw %"class.Luau::Variant.161", ptr %3, i32 0, i32 2
  invoke void %8(ptr noundef %9)
          to label %10 unwind label %11

10:                                               ; preds = %1
  ret void

11:                                               ; preds = %1
  %12 = landingpad { ptr, i32 }
          catch ptr null
  %13 = extractvalue { ptr, i32 } %12, 0
  call void @__clang_call_terminate(ptr %13) #21
  unreachable
}

; Function Attrs: mustprogress uwtable
define linkonce_odr dso_local void @_ZN4Luau7VariantIJNS_16BooleanSingletonENS_15StringSingletonEEEC2ERKS3_(ptr noundef nonnull align 8 dereferenceable(40) %0, ptr noundef nonnull align 8 dereferenceable(40) %1) unnamed_addr #3 comdat align 2 {
  %3 = alloca ptr, align 8
  %4 = alloca ptr, align 8
  store ptr %0, ptr %3, align 8, !tbaa !473
  store ptr %1, ptr %4, align 8, !tbaa !473
  %5 = load ptr, ptr %3, align 8
  %6 = load ptr, ptr %4, align 8, !tbaa !473
  %7 = getelementptr inbounds nuw %"class.Luau::Variant.161", ptr %6, i32 0, i32 0
  %8 = load i32, ptr %7, align 8, !tbaa !475
  %9 = getelementptr inbounds nuw %"class.Luau::Variant.161", ptr %5, i32 0, i32 0
  store i32 %8, ptr %9, align 8, !tbaa !475
  %10 = getelementptr inbounds nuw %"class.Luau::Variant.161", ptr %5, i32 0, i32 0
  %11 = load i32, ptr %10, align 8, !tbaa !475
  %12 = sext i32 %11 to i64
  %13 = getelementptr inbounds [2 x ptr], ptr @_ZZN4Luau7VariantIJNS_16BooleanSingletonENS_15StringSingletonEEEC1ERKS3_E5table, i64 0, i64 %12
  %14 = load ptr, ptr %13, align 8, !tbaa !438
  %15 = getelementptr inbounds nuw %"class.Luau::Variant.161", ptr %5, i32 0, i32 2
  %16 = load ptr, ptr %4, align 8, !tbaa !473
  %17 = getelementptr inbounds nuw %"class.Luau::Variant.161", ptr %16, i32 0, i32 2
  call void %14(ptr noundef %15, ptr noundef %17)
  ret void
}

; Function Attrs: inlinehint mustprogress nounwind uwtable
define linkonce_odr dso_local void @_ZN4Luau13SingletonTypeD2Ev(ptr noundef nonnull align 8 dereferenceable(40) %0) unnamed_addr #5 comdat align 2 {
  %2 = alloca ptr, align 8
  store ptr %0, ptr %2, align 8, !tbaa !471
  %3 = load ptr, ptr %2, align 8
  %4 = getelementptr inbounds nuw %"struct.Luau::SingletonType", ptr %3, i32 0, i32 0
  call void @_ZN4Luau7VariantIJNS_16BooleanSingletonENS_15StringSingletonEEED2Ev(ptr noundef nonnull align 8 dereferenceable(40) %4) #19
  ret void
}

; Function Attrs: inlinehint mustprogress uwtable
define linkonce_odr dso_local void @_ZN4Luau13SingletonTypeC2ERKS0_(ptr noundef nonnull align 8 dereferenceable(40) %0, ptr noundef nonnull align 8 dereferenceable(40) %1) unnamed_addr #8 comdat align 2 {
  %3 = alloca ptr, align 8
  %4 = alloca ptr, align 8
  store ptr %0, ptr %3, align 8, !tbaa !471
  store ptr %1, ptr %4, align 8, !tbaa !471
  %5 = load ptr, ptr %3, align 8
  %6 = getelementptr inbounds nuw %"struct.Luau::SingletonType", ptr %5, i32 0, i32 0
  %7 = load ptr, ptr %4, align 8, !tbaa !471
  %8 = getelementptr inbounds nuw %"struct.Luau::SingletonType", ptr %7, i32 0, i32 0
  call void @_ZN4Luau7VariantIJNS_16BooleanSingletonENS_15StringSingletonEEEC2ERKS3_(ptr noundef nonnull align 8 dereferenceable(40) %6, ptr noundef nonnull align 8 dereferenceable(40) %8)
  ret void
}

; Function Attrs: inlinehint mustprogress uwtable
define internal noundef ptr @"_ZZN4LuauL12shallowCloneEPKNS_4TypeERNS_9TypeArenaEPKNS_6TxnLogEbENK3$_0clIRKNS_13SingletonTypeEEEDaOT_"(ptr noundef nonnull align 8 dereferenceable(17) %0, ptr noundef nonnull align 8 dereferenceable(40) %1) #8 align 2 personality ptr @__gxx_personality_v0 {
  %3 = alloca ptr, align 8
  %4 = alloca ptr, align 8
  %5 = alloca %"struct.Luau::SingletonType", align 8
  %6 = alloca ptr, align 8
  %7 = alloca i32, align 4
  store ptr %0, ptr %3, align 8, !tbaa !438
  store ptr %1, ptr %4, align 8, !tbaa !471
  %8 = load ptr, ptr %3, align 8
  %9 = getelementptr inbounds nuw %class.anon, ptr %8, i32 0, i32 1
  %10 = load ptr, ptr %9, align 8, !tbaa !446
  %11 = load ptr, ptr %4, align 8, !tbaa !471
  call void @_ZN4Luau13SingletonTypeC2ERKS0_(ptr noundef nonnull align 8 dereferenceable(40) %5, ptr noundef nonnull align 8 dereferenceable(40) %11)
  %12 = invoke noundef ptr @_ZN4Luau9TypeArena7addTypeINS_13SingletonTypeEEEPKNS_4TypeET_(ptr noundef nonnull align 8 dereferenceable(88) %10, ptr noundef %5)
          to label %13 unwind label %14

13:                                               ; preds = %2
  call void @_ZN4Luau13SingletonTypeD2Ev(ptr noundef nonnull align 8 dereferenceable(40) %5) #19
  ret ptr %12

14:                                               ; preds = %2
  %15 = landingpad { ptr, i32 }
          cleanup
  %16 = extractvalue { ptr, i32 } %15, 0
  store ptr %16, ptr %6, align 8
  %17 = extractvalue { ptr, i32 } %15, 1
  store i32 %17, ptr %7, align 4
  call void @_ZN4Luau13SingletonTypeD2Ev(ptr noundef nonnull align 8 dereferenceable(40) %5) #19
  br label %18

18:                                               ; preds = %14
  %19 = load ptr, ptr %6, align 8
  %20 = load i32, ptr %7, align 4
  %21 = insertvalue { ptr, i32 } poison, ptr %19, 0
  %22 = insertvalue { ptr, i32 } %21, i32 %20, 1
  resume { ptr, i32 } %22
}

; Function Attrs: mustprogress uwtable
define internal void @"_ZN4LuauL8fnVisitRIRZNS_L12shallowCloneEPKNS_4TypeERNS_9TypeArenaEPKNS_6TxnLogEbE3$_0S3_KNS_13SingletonTypeEEEvRT_RT0_PNSt11conditionalIXsr3stdE10is_const_vIT1_EEKvvE4typeE"(ptr noundef nonnull align 8 dereferenceable(17) %0, ptr noundef nonnull align 8 dereferenceable(8) %1, ptr noundef %2) #3 {
  %4 = alloca ptr, align 8
  %5 = alloca ptr, align 8
  %6 = alloca ptr, align 8
  store ptr %0, ptr %4, align 8, !tbaa !438
  store ptr %1, ptr %5, align 8, !tbaa !73
  store ptr %2, ptr %6, align 8, !tbaa !438
  %7 = load ptr, ptr %4, align 8, !tbaa !438
  %8 = load ptr, ptr %6, align 8, !tbaa !438
  %9 = call noundef ptr @"_ZZN4LuauL12shallowCloneEPKNS_4TypeERNS_9TypeArenaEPKNS_6TxnLogEbENK3$_0clIRKNS_13SingletonTypeEEEDaOT_"(ptr noundef nonnull align 8 dereferenceable(17) %7, ptr noundef nonnull align 8 dereferenceable(40) %8)
  %10 = load ptr, ptr %5, align 8, !tbaa !73
  store ptr %9, ptr %10, align 8, !tbaa !26
  ret void
}