; Function Attrs: mustprogress uwtable
define internal void @"_ZN4LuauL8fnVisitRIRZNS_L12shallowCloneEPKNS_4TypeERNS_9TypeArenaEPKNS_6TxnLogEbE3$_0S3_KNS_13SingletonTypeEEEvRT_RT0_PNSt11conditionalIXsr3stdE10is_const_vIT1_EEKvvE4typeE"(ptr noundef nonnull readonly align 8 captures(none) dereferenceable(17) %0, ptr noundef nonnull writeonly align 8 captures(none) dereferenceable(8) %1, ptr noundef %2) #2 personality ptr @__gxx_personality_v0 {
  %4 = alloca %"struct.Luau::SingletonType", align 8
  %5 = getelementptr inbounds nuw i8, ptr %0, i64 8
  %.val = load ptr, ptr %5, align 8, !tbaa !248
  call void @llvm.lifetime.start.p0(i64 40, ptr nonnull %4)
  %6 = load i32, ptr %2, align 8, !tbaa !261
  store i32 %6, ptr %4, align 8, !tbaa !261
  %7 = sext i32 %6 to i64
  %8 = getelementptr inbounds [2 x ptr], ptr @_ZZN4Luau7VariantIJNS_16BooleanSingletonENS_15StringSingletonEEEC1ERKS3_E5table, i64 0, i64 %7
  %9 = load ptr, ptr %8, align 8, !tbaa !238
  %10 = getelementptr inbounds nuw i8, ptr %4, i64 8
  %11 = getelementptr inbounds nuw i8, ptr %2, i64 8
  call void %9(ptr noundef nonnull %10, ptr noundef nonnull %11)
  %12 = invoke noundef ptr @_ZN4Luau9TypeArena7addTypeINS_13SingletonTypeEEEPKNS_4TypeET_(ptr noundef nonnull align 8 dereferenceable(88) %.val, ptr noundef nonnull %4)
          to label %13 unwind label %21

13:                                               ; preds = %3
  %14 = load i32, ptr %4, align 8, !tbaa !261
  %15 = sext i32 %14 to i64
  %16 = getelementptr inbounds [2 x ptr], ptr @_ZN4Luau7VariantIJNS_16BooleanSingletonENS_15StringSingletonEEE9tableDtorE, i64 0, i64 %15
  %17 = load ptr, ptr %16, align 8, !tbaa !238
  invoke void %17(ptr noundef nonnull %10)
          to label %"_ZZN4LuauL12shallowCloneEPKNS_4TypeERNS_9TypeArenaEPKNS_6TxnLogEbENK3$_0clIRKNS_13SingletonTypeEEEDaOT_.exit" unwind label %18

18:                                               ; preds = %13
  %19 = landingpad { ptr, i32 }
          catch ptr null
  %20 = extractvalue { ptr, i32 } %19, 0
  call void @__clang_call_terminate(ptr %20) #28
  unreachable

21:                                               ; preds = %3
  %22 = landingpad { ptr, i32 }
          cleanup
  %23 = load i32, ptr %4, align 8, !tbaa !261
  %24 = sext i32 %23 to i64
  %25 = getelementptr inbounds [2 x ptr], ptr @_ZN4Luau7VariantIJNS_16BooleanSingletonENS_15StringSingletonEEE9tableDtorE, i64 0, i64 %24
  %26 = load ptr, ptr %25, align 8, !tbaa !238
  invoke void %26(ptr noundef nonnull %10)
          to label %_ZN4Luau13SingletonTypeD2Ev.exit3.i unwind label %27

27:                                               ; preds = %21
  %28 = landingpad { ptr, i32 }
          catch ptr null
  %29 = extractvalue { ptr, i32 } %28, 0
  call void @__clang_call_terminate(ptr %29) #28
  unreachable

_ZN4Luau13SingletonTypeD2Ev.exit3.i:              ; preds = %21
  resume { ptr, i32 } %22

"_ZZN4LuauL12shallowCloneEPKNS_4TypeERNS_9TypeArenaEPKNS_6TxnLogEbENK3$_0clIRKNS_13SingletonTypeEEEDaOT_.exit": ; preds = %13
  call void @llvm.lifetime.end.p0(i64 40, ptr nonnull %4)
  store ptr %12, ptr %1, align 8, !tbaa !24
  ret void
}